target datalayout = "e-m:e-p270:32:32-p271:32:32-p272:64:64-i64:64-i128:128-f80:128-n8:16:32:64-S128"
target triple = "x86_64-pc-linux-gnu"

%struct.FunctionCallInfoBaseData = type { ptr, ptr, ptr, i32, i8, i16, [0 x %struct.NullableDatum] }
%struct.NullableDatum = type { i64, i8 }
%struct.varattrib_1b = type { i8, [0 x i8] }
%struct.anon = type { i32, [0 x i8] }
%struct.inet_struct = type { i8, i8, [16 x i8] }

; Function Attrs: inlinehint nounwind uwtable
define internal i64 @PointerGetDatum(ptr noundef %0) #2 {
  %2 = alloca ptr, align 8
  store ptr %0, ptr %2, align 8
  %3 = load ptr, ptr %2, align 8
  %4 = ptrtoint ptr %3 to i64
  ret i64 %4
}

; Function Attrs: inlinehint nounwind uwtable
define internal ptr @DatumGetPointer(i64 noundef %0) #2 {
  %2 = alloca i64, align 8
  store i64 %0, ptr %2, align 8
  %3 = load i64, ptr %2, align 8
  %4 = inttoptr i64 %3 to ptr
  ret ptr %4
}

; Function Attrs: inlinehint nounwind uwtable
define internal i64 @InetPGetDatum(ptr noundef %0) #2 {
  %2 = alloca ptr, align 8
  store ptr %0, ptr %2, align 8
  %3 = load ptr, ptr %2, align 8
  %4 = call i64 @PointerGetDatum(ptr noundef %3)
  ret i64 %4
}

; Function Attrs: inlinehint nounwind uwtable
define internal ptr @DatumGetInetPP(i64 noundef %0) #2 {
  %2 = alloca i64, align 8
  store i64 %0, ptr %2, align 8
  %3 = load i64, ptr %2, align 8
  %4 = call ptr @DatumGetPointer(i64 noundef %3)
  %5 = call ptr @pg_detoast_datum_packed(ptr noundef %4)
  ret ptr %5
}

; Function Attrs: nounwind uwtable
define dso_local i64 @network_netmask(ptr noundef %0) #0 {
  %2 = alloca ptr, align 8
  %3 = alloca ptr, align 8
  %4 = alloca ptr, align 8
  %5 = alloca i32, align 4
  %6 = alloca i32, align 4
  %7 = alloca i8, align 1
  %8 = alloca ptr, align 8
  store ptr %0, ptr %2, align 8
  call void @llvm.lifetime.start.p0(i64 8, ptr %3) #8
  %9 = load ptr, ptr %2, align 8
  %10 = getelementptr inbounds nuw %struct.FunctionCallInfoBaseData, ptr %9, i32 0, i32 6
  %11 = getelementptr inbounds [0 x %struct.NullableDatum], ptr %10, i64 0, i64 0
  %12 = getelementptr inbounds nuw %struct.NullableDatum, ptr %11, i32 0, i32 0
  %13 = load i64, ptr %12, align 8
  %14 = call ptr @DatumGetInetPP(i64 noundef %13)
  store ptr %14, ptr %3, align 8
  call void @llvm.lifetime.start.p0(i64 8, ptr %4) #8
  call void @llvm.lifetime.start.p0(i64 4, ptr %5) #8
  call void @llvm.lifetime.start.p0(i64 4, ptr %6) #8
  call void @llvm.lifetime.start.p0(i64 1, ptr %7) #8
  call void @llvm.lifetime.start.p0(i64 8, ptr %8) #8
  %15 = call ptr @palloc0(i64 noundef 22)
  store ptr %15, ptr %4, align 8
  %16 = load ptr, ptr %3, align 8
  %17 = getelementptr inbounds nuw %struct.varattrib_1b, ptr %16, i32 0, i32 0
  %18 = load i8, ptr %17, align 1
  %19 = zext i8 %18 to i32
  %20 = and i32 %19, 1
  %21 = icmp eq i32 %20, 1
  br i1 %21, label %22, label %26

22:                                               ; preds = %1
  %23 = load ptr, ptr %3, align 8
  %24 = getelementptr inbounds nuw %struct.varattrib_1b, ptr %23, i32 0, i32 1
  %25 = getelementptr inbounds [0 x i8], ptr %24, i64 0, i64 0
  br label %30

26:                                               ; preds = %1
  %27 = load ptr, ptr %3, align 8
  %28 = getelementptr inbounds nuw %struct.anon, ptr %27, i32 0, i32 1
  %29 = getelementptr inbounds [0 x i8], ptr %28, i64 0, i64 0
  br label %30

30:                                               ; preds = %26, %22
  %31 = phi ptr [ %25, %22 ], [ %29, %26 ]
  %32 = getelementptr inbounds nuw %struct.inet_struct, ptr %31, i32 0, i32 1
  %33 = load i8, ptr %32, align 1
  %34 = zext i8 %33 to i32
  store i32 %34, ptr %6, align 4
  %35 = load ptr, ptr %4, align 8
  %36 = getelementptr inbounds nuw %struct.varattrib_1b, ptr %35, i32 0, i32 0
  %37 = load i8, ptr %36, align 1
  %38 = zext i8 %37 to i32
  %39 = and i32 %38, 1
  %40 = icmp eq i32 %39, 1
  br i1 %40, label %41, label %45

41:                                               ; preds = %30
  %42 = load ptr, ptr %4, align 8
  %43 = getelementptr inbounds nuw %struct.varattrib_1b, ptr %42, i32 0, i32 1
  %44 = getelementptr inbounds [0 x i8], ptr %43, i64 0, i64 0
  br label %49

45:                                               ; preds = %30
  %46 = load ptr, ptr %4, align 8
  %47 = getelementptr inbounds nuw %struct.anon, ptr %46, i32 0, i32 1
  %48 = getelementptr inbounds [0 x i8], ptr %47, i64 0, i64 0
  br label %49

49:                                               ; preds = %45, %41
  %50 = phi ptr [ %44, %41 ], [ %48, %45 ]
  %51 = getelementptr inbounds nuw %struct.inet_struct, ptr %50, i32 0, i32 2
  %52 = getelementptr inbounds [16 x i8], ptr %51, i64 0, i64 0
  store ptr %52, ptr %8, align 8
  store i32 0, ptr %5, align 4
  br label %53

53:                                               ; preds = %67, %49
  %54 = load i32, ptr %6, align 4
  %55 = icmp ne i32 %54, 0
  br i1 %55, label %56, label %75

56:                                               ; preds = %53
  %57 = load i32, ptr %6, align 4
  %58 = icmp sge i32 %57, 8
  br i1 %58, label %59, label %62

59:                                               ; preds = %56
  store i8 -1, ptr %7, align 1
  %60 = load i32, ptr %6, align 4
  %61 = sub i32 %60, 8
  store i32 %61, ptr %6, align 4
  br label %67

62:                                               ; preds = %56
  %63 = load i32, ptr %6, align 4
  %64 = sub i32 8, %63
  %65 = shl i32 255, %64
  %66 = trunc i32 %65 to i8
  store i8 %66, ptr %7, align 1
  store i32 0, ptr %6, align 4
  br label %67

67:                                               ; preds = %62, %59
  %68 = load i8, ptr %7, align 1
  %69 = load ptr, ptr %8, align 8
  %70 = load i32, ptr %5, align 4
  %71 = sext i32 %70 to i64
  %72 = getelementptr inbounds i8, ptr %69, i64 %71
  store i8 %68, ptr %72, align 1
  %73 = load i32, ptr %5, align 4
  %74 = add i32 %73, 1
  store i32 %74, ptr %5, align 4
  br label %53, !llvm.loop !12

75:                                               ; preds = %53
  %76 = load ptr, ptr %3, align 8
  %77 = getelementptr inbounds nuw %struct.varattrib_1b, ptr %76, i32 0, i32 0
  %78 = load i8, ptr %77, align 1
  %79 = zext i8 %78 to i32
  %80 = and i32 %79, 1
  %81 = icmp eq i32 %80, 1
  br i1 %81, label %82, label %86

82:                                               ; preds = %75
  %83 = load ptr, ptr %3, align 8
  %84 = getelementptr inbounds nuw %struct.varattrib_1b, ptr %83, i32 0, i32 1
  %85 = getelementptr inbounds [0 x i8], ptr %84, i64 0, i64 0
  br label %90

86:                                               ; preds = %75
  %87 = load ptr, ptr %3, align 8
  %88 = getelementptr inbounds nuw %struct.anon, ptr %87, i32 0, i32 1
  %89 = getelementptr inbounds [0 x i8], ptr %88, i64 0, i64 0
  br label %90

90:                                               ; preds = %86, %82
  %91 = phi ptr [ %85, %82 ], [ %89, %86 ]
  %92 = getelementptr inbounds nuw %struct.inet_struct, ptr %91, i32 0, i32 0
  %93 = load i8, ptr %92, align 1
  %94 = load ptr, ptr %4, align 8
  %95 = getelementptr inbounds nuw %struct.varattrib_1b, ptr %94, i32 0, i32 0
  %96 = load i8, ptr %95, align 1
  %97 = zext i8 %96 to i32
  %98 = and i32 %97, 1
  %99 = icmp eq i32 %98, 1
  br i1 %99, label %100, label %104

100:                                              ; preds = %90
  %101 = load ptr, ptr %4, align 8
  %102 = getelementptr inbounds nuw %struct.varattrib_1b, ptr %101, i32 0, i32 1
  %103 = getelementptr inbounds [0 x i8], ptr %102, i64 0, i64 0
  br label %108

104:                                              ; preds = %90
  %105 = load ptr, ptr %4, align 8
  %106 = getelementptr inbounds nuw %struct.anon, ptr %105, i32 0, i32 1
  %107 = getelementptr inbounds [0 x i8], ptr %106, i64 0, i64 0
  br label %108

108:                                              ; preds = %104, %100
  %109 = phi ptr [ %103, %100 ], [ %107, %104 ]
  %110 = getelementptr inbounds nuw %struct.inet_struct, ptr %109, i32 0, i32 0
  store i8 %93, ptr %110, align 1
  %111 = load ptr, ptr %3, align 8
  %112 = getelementptr inbounds nuw %struct.varattrib_1b, ptr %111, i32 0, i32 0
  %113 = load i8, ptr %112, align 1
  %114 = zext i8 %113 to i32
  %115 = and i32 %114, 1
  %116 = icmp eq i32 %115, 1
  br i1 %116, label %117, label %121

117:                                              ; preds = %108
  %118 = load ptr, ptr %3, align 8
  %119 = getelementptr inbounds nuw %struct.varattrib_1b, ptr %118, i32 0, i32 1
  %120 = getelementptr inbounds [0 x i8], ptr %119, i64 0, i64 0
  br label %125

121:                                              ; preds = %108
  %122 = load ptr, ptr %3, align 8
  %123 = getelementptr inbounds nuw %struct.anon, ptr %122, i32 0, i32 1
  %124 = getelementptr inbounds [0 x i8], ptr %123, i64 0, i64 0
  br label %125

125:                                              ; preds = %121, %117
  %126 = phi ptr [ %120, %117 ], [ %124, %121 ]
  %127 = getelementptr inbounds nuw %struct.inet_struct, ptr %126, i32 0, i32 0
  %128 = load i8, ptr %127, align 1
  %129 = zext i8 %128 to i32
  %130 = icmp eq i32 %129, 2
  %131 = select i1 %130, i32 32, i32 128
  %132 = trunc i32 %131 to i8
  %133 = load ptr, ptr %4, align 8
  %134 = getelementptr inbounds nuw %struct.varattrib_1b, ptr %133, i32 0, i32 0
  %135 = load i8, ptr %134, align 1
  %136 = zext i8 %135 to i32
  %137 = and i32 %136, 1
  %138 = icmp eq i32 %137, 1
  br i1 %138, label %139, label %143

139:                                              ; preds = %125
  %140 = load ptr, ptr %4, align 8
  %141 = getelementptr inbounds nuw %struct.varattrib_1b, ptr %140, i32 0, i32 1
  %142 = getelementptr inbounds [0 x i8], ptr %141, i64 0, i64 0
  br label %147

143:                                              ; preds = %125
  %144 = load ptr, ptr %4, align 8
  %145 = getelementptr inbounds nuw %struct.anon, ptr %144, i32 0, i32 1
  %146 = getelementptr inbounds [0 x i8], ptr %145, i64 0, i64 0
  br label %147

147:                                              ; preds = %143, %139
  %148 = phi ptr [ %142, %139 ], [ %146, %143 ]
  %149 = getelementptr inbounds nuw %struct.inet_struct, ptr %148, i32 0, i32 1
  store i8 %132, ptr %149, align 1
  %150 = load ptr, ptr %4, align 8
  %151 = getelementptr inbounds nuw %struct.varattrib_1b, ptr %150, i32 0, i32 0
  %152 = load i8, ptr %151, align 1
  %153 = zext i8 %152 to i32
  %154 = and i32 %153, 1
  %155 = icmp eq i32 %154, 1
  br i1 %155, label %156, label %160

156:                                              ; preds = %147
  %157 = load ptr, ptr %4, align 8
  %158 = getelementptr inbounds nuw %struct.varattrib_1b, ptr %157, i32 0, i32 1
  %159 = getelementptr inbounds [0 x i8], ptr %158, i64 0, i64 0
  br label %164

160:                                              ; preds = %147
  %161 = load ptr, ptr %4, align 8
  %162 = getelementptr inbounds nuw %struct.anon, ptr %161, i32 0, i32 1
  %163 = getelementptr inbounds [0 x i8], ptr %162, i64 0, i64 0
  br label %164

164:                                              ; preds = %160, %156
  %165 = phi ptr [ %159, %156 ], [ %163, %160 ]
  %166 = getelementptr inbounds nuw %struct.inet_struct, ptr %165, i32 0, i32 0
  %167 = load i8, ptr %166, align 1
  %168 = zext i8 %167 to i32
  %169 = icmp eq i32 %168, 2
  %170 = select i1 %169, i32 4, i32 16
  %171 = sext i32 %170 to i64
  %172 = add i64 6, %171
  %173 = trunc i64 %172 to i32
  %174 = shl i32 %173, 2
  %175 = load ptr, ptr %4, align 8
  %176 = getelementptr inbounds nuw %struct.anon, ptr %175, i32 0, i32 0
  store i32 %174, ptr %176, align 4
  %177 = load ptr, ptr %4, align 8
  %178 = call i64 @InetPGetDatum(ptr noundef %177)
  call void @llvm.lifetime.end.p0(i64 8, ptr %8) #8
  call void @llvm.lifetime.end.p0(i64 1, ptr %7) #8
  call void @llvm.lifetime.end.p0(i64 4, ptr %6) #8
  call void @llvm.lifetime.end.p0(i64 4, ptr %5) #8
  call void @llvm.lifetime.end.p0(i64 8, ptr %4) #8
  call void @llvm.lifetime.end.p0(i64 8, ptr %3) #8
  ret i64 %178
}