; Function Attrs: nounwind uwtable
define dso_local noundef i64 @network_netmask(ptr noundef readonly captures(none) %0) local_unnamed_addr #0 {
  %2 = getelementptr inbounds nuw i8, ptr %0, i64 32
  %3 = load i64, ptr %2, align 8
  %4 = inttoptr i64 %3 to ptr
  %5 = tail call ptr @pg_detoast_datum_packed(ptr noundef %4) #14
  %6 = tail call ptr @palloc0(i64 noundef 22) #14
  %7 = load i8, ptr %5, align 1
  %8 = and i8 %7, 1
  %.not = icmp eq i8 %8, 0
  %9 = getelementptr inbounds nuw i8, ptr %5, i64 1
  %10 = getelementptr inbounds nuw i8, ptr %5, i64 4
  %11 = select i1 %.not, ptr %10, ptr %9
  %12 = getelementptr inbounds nuw i8, ptr %11, i64 1
  %13 = load i8, ptr %12, align 1
  %14 = load i8, ptr %6, align 1
  %15 = and i8 %14, 1
  %.not33 = icmp eq i8 %15, 0
  %16 = getelementptr inbounds nuw i8, ptr %6, i64 1
  %17 = getelementptr inbounds nuw i8, ptr %6, i64 4
  %18 = select i1 %.not33, ptr %17, ptr %16
  %19 = getelementptr inbounds nuw i8, ptr %18, i64 2
  %.not3440 = icmp eq i8 %13, 0
  br i1 %.not3440, label %select.unfold._crit_edge, label %select.unfold.preheader

select.unfold.preheader:                          ; preds = %1
  %20 = zext i8 %13 to i32
  br label %select.unfold

select.unfold:                                    ; preds = %select.unfold.preheader, %select.unfold
  %.042 = phi i32 [ %27, %select.unfold ], [ 0, %select.unfold.preheader ]
  %.03241 = phi i32 [ %spec.select, %select.unfold ], [ %20, %select.unfold.preheader ]
  %21 = icmp ugt i32 %.03241, 7
  %22 = sub nuw nsw i32 8, %.03241
  %23 = shl nuw nsw i32 255, %22
  %24 = trunc i32 %23 to i8
  %.031 = select i1 %21, i8 -1, i8 %24
  %25 = sext i32 %.042 to i64
  %26 = getelementptr inbounds i8, ptr %19, i64 %25
  store i8 %.031, ptr %26, align 1
  %27 = add i32 %.042, 1
  %28 = tail call i32 @llvm.smax.i32(i32 %.03241, i32 8)
  %spec.select = add nsw i32 %28, -8
  %.not34 = icmp eq i32 %spec.select, 0
  br i1 %.not34, label %select.unfold._crit_edge.loopexit, label %select.unfold

select.unfold._crit_edge.loopexit:                ; preds = %select.unfold
  %.pre = load i8, ptr %5, align 1
  %.pre43 = load i8, ptr %6, align 1
  %.pre44 = and i8 %.pre, 1
  %.pre45 = and i8 %.pre43, 1
  br label %select.unfold._crit_edge

select.unfold._crit_edge:                         ; preds = %select.unfold._crit_edge.loopexit, %1
  %.pre-phi46 = phi i8 [ %.pre45, %select.unfold._crit_edge.loopexit ], [ %15, %1 ]
  %.pre-phi = phi i8 [ %.pre44, %select.unfold._crit_edge.loopexit ], [ %8, %1 ]
  %.not35 = icmp eq i8 %.pre-phi, 0
  %29 = select i1 %.not35, ptr %10, ptr %9
  %30 = load i8, ptr %29, align 1
  %.not36 = icmp eq i8 %.pre-phi46, 0
  %31 = select i1 %.not36, ptr %17, ptr %16
  store i8 %30, ptr %31, align 1
  %32 = load i8, ptr %5, align 1
  %33 = and i8 %32, 1
  %.not37 = icmp eq i8 %33, 0
  %34 = select i1 %.not37, ptr %10, ptr %9
  %35 = load i8, ptr %34, align 1
  %36 = icmp eq i8 %35, 2
  %37 = select i1 %36, i8 32, i8 -128
  %38 = getelementptr inbounds nuw i8, ptr %31, i64 1
  store i8 %37, ptr %38, align 1
  %39 = load i8, ptr %6, align 1
  %40 = and i8 %39, 1
  %.not39 = icmp eq i8 %40, 0
  %41 = select i1 %.not39, ptr %17, ptr %16
  %42 = load i8, ptr %41, align 1
  %43 = icmp eq i8 %42, 2
  %44 = select i1 %43, i32 40, i32 88
  store i32 %44, ptr %6, align 4
  %45 = ptrtoint ptr %6 to i64
  ret i64 %45
}